; ModuleID = '9/68.c'
source_filename = "9/68.c"
target datalayout = "e-m:e-p270:32:32-p271:32:32-p272:64:64-i64:64-f80:128-n8:16:32:64-S128"
target triple = "x86_64-pc-linux-gnu"

@.str = private unnamed_addr constant [3 x i8] c"%d\00", align 1
@.str.1 = private unnamed_addr constant [5 x i8] c"%s%d\00", align 1
@.str.2 = private unnamed_addr constant [4 x i8] c"%s\0A\00", align 1

; Function Attrs: noinline nounwind uwtable
define dso_local void @main() #0 {
  %1 = alloca i32, align 4
  %2 = alloca i32, align 4
  %3 = alloca i32, align 4
  %4 = alloca [100 x i32], align 16
  %5 = alloca [100 x i32], align 16
  %6 = alloca i32, align 4
  %7 = alloca [100 x i32], align 16
  %8 = alloca i32, align 4
  %9 = alloca i32, align 4
  %10 = alloca [100 x [10 x i8]], align 16
  %11 = alloca [100 x [10 x i8]], align 16
  %12 = alloca [100 x [10 x i8]], align 16
  %13 = alloca [10 x i8], align 1
  store i32 0, i32* %6, align 4
  store i32 0, i32* %8, align 4
  %14 = call i32 (i8*, ...) @__isoc99_scanf(i8* getelementptr inbounds ([3 x i8], [3 x i8]* @.str, i64 0, i64 0), i32* %1)
  store i32 0, i32* %2, align 4
  br label %15

15:                                               ; preds = %72, %0
  %16 = load i32, i32* %2, align 4
  %17 = load i32, i32* %1, align 4
  %18 = icmp slt i32 %16, %17
  br i1 %18, label %19, label %75

19:                                               ; preds = %15
  %20 = load i32, i32* %2, align 4
  %21 = sext i32 %20 to i64
  %22 = getelementptr inbounds [100 x [10 x i8]], [100 x [10 x i8]]* %10, i64 0, i64 %21
  %23 = getelementptr inbounds [10 x i8], [10 x i8]* %22, i64 0, i64 0
  %24 = load i32, i32* %2, align 4
  %25 = sext i32 %24 to i64
  %26 = getelementptr inbounds [100 x i32], [100 x i32]* %4, i64 0, i64 %25
  %27 = call i32 (i8*, ...) @__isoc99_scanf(i8* getelementptr inbounds ([5 x i8], [5 x i8]* @.str.1, i64 0, i64 0), i8* %23, i32* %26)
  %28 = load i32, i32* %2, align 4
  %29 = sext i32 %28 to i64
  %30 = getelementptr inbounds [100 x i32], [100 x i32]* %4, i64 0, i64 %29
  %31 = load i32, i32* %30, align 4
  %32 = icmp sge i32 %31, 60
  br i1 %32, label %33, label %52

33:                                               ; preds = %19
  %34 = load i32, i32* %2, align 4
  %35 = sext i32 %34 to i64
  %36 = getelementptr inbounds [100 x i32], [100 x i32]* %4, i64 0, i64 %35
  %37 = load i32, i32* %36, align 4
  %38 = load i32, i32* %6, align 4
  %39 = sext i32 %38 to i64
  %40 = getelementptr inbounds [100 x i32], [100 x i32]* %5, i64 0, i64 %39
  store i32 %37, i32* %40, align 4
  %41 = load i32, i32* %6, align 4
  %42 = sext i32 %41 to i64
  %43 = getelementptr inbounds [100 x [10 x i8]], [100 x [10 x i8]]* %11, i64 0, i64 %42
  %44 = getelementptr inbounds [10 x i8], [10 x i8]* %43, i64 0, i64 0
  %45 = load i32, i32* %2, align 4
  %46 = sext i32 %45 to i64
  %47 = getelementptr inbounds [100 x [10 x i8]], [100 x [10 x i8]]* %10, i64 0, i64 %46
  %48 = getelementptr inbounds [10 x i8], [10 x i8]* %47, i64 0, i64 0
  %49 = call i8* @strcpy(i8* %44, i8* %48) #3
  %50 = load i32, i32* %6, align 4
  %51 = add nsw i32 %50, 1
  store i32 %51, i32* %6, align 4
  br label %71

52:                                               ; preds = %19
  %53 = load i32, i32* %2, align 4
  %54 = sext i32 %53 to i64
  %55 = getelementptr inbounds [100 x i32], [100 x i32]* %4, i64 0, i64 %54
  %56 = load i32, i32* %55, align 4
  %57 = load i32, i32* %8, align 4
  %58 = sext i32 %57 to i64
  %59 = getelementptr inbounds [100 x i32], [100 x i32]* %7, i64 0, i64 %58
  store i32 %56, i32* %59, align 4
  %60 = load i32, i32* %8, align 4
  %61 = sext i32 %60 to i64
  %62 = getelementptr inbounds [100 x [10 x i8]], [100 x [10 x i8]]* %12, i64 0, i64 %61
  %63 = getelementptr inbounds [10 x i8], [10 x i8]* %62, i64 0, i64 0
  %64 = load i32, i32* %2, align 4
  %65 = sext i32 %64 to i64
  %66 = getelementptr inbounds [100 x [10 x i8]], [100 x [10 x i8]]* %10, i64 0, i64 %65
  %67 = getelementptr inbounds [10 x i8], [10 x i8]* %66, i64 0, i64 0
  %68 = call i8* @strcpy(i8* %63, i8* %67) #3
  %69 = load i32, i32* %8, align 4
  %70 = add nsw i32 %69, 1
  store i32 %70, i32* %8, align 4
  br label %71

71:                                               ; preds = %52, %33
  br label %72

72:                                               ; preds = %71
  %73 = load i32, i32* %2, align 4
  %74 = add nsw i32 %73, 1
  store i32 %74, i32* %2, align 4
  br label %15

75:                                               ; preds = %15
  store i32 0, i32* %3, align 4
  br label %76

76:                                               ; preds = %146, %75
  %77 = load i32, i32* %3, align 4
  %78 = load i32, i32* %6, align 4
  %79 = sub nsw i32 %78, 1
  %80 = icmp slt i32 %77, %79
  br i1 %80, label %81, label %149

81:                                               ; preds = %76
  store i32 0, i32* %2, align 4
  br label %82

82:                                               ; preds = %142, %81
  %83 = load i32, i32* %2, align 4
  %84 = load i32, i32* %6, align 4
  %85 = load i32, i32* %3, align 4
  %86 = sub nsw i32 %84, %85
  %87 = sub nsw i32 %86, 1
  %88 = icmp slt i32 %83, %87
  br i1 %88, label %89, label %145

89:                                               ; preds = %82
  %90 = load i32, i32* %2, align 4
  %91 = sext i32 %90 to i64
  %92 = getelementptr inbounds [100 x i32], [100 x i32]* %5, i64 0, i64 %91
  %93 = load i32, i32* %92, align 4
  %94 = load i32, i32* %2, align 4
  %95 = add nsw i32 %94, 1
  %96 = sext i32 %95 to i64
  %97 = getelementptr inbounds [100 x i32], [100 x i32]* %5, i64 0, i64 %96
  %98 = load i32, i32* %97, align 4
  %99 = icmp slt i32 %93, %98
  br i1 %99, label %100, label %141

100:                                              ; preds = %89
  %101 = load i32, i32* %2, align 4
  %102 = sext i32 %101 to i64
  %103 = getelementptr inbounds [100 x i32], [100 x i32]* %5, i64 0, i64 %102
  %104 = load i32, i32* %103, align 4
  store i32 %104, i32* %9, align 4
  %105 = load i32, i32* %2, align 4
  %106 = add nsw i32 %105, 1
  %107 = sext i32 %106 to i64
  %108 = getelementptr inbounds [100 x i32], [100 x i32]* %5, i64 0, i64 %107
  %109 = load i32, i32* %108, align 4
  %110 = load i32, i32* %2, align 4
  %111 = sext i32 %110 to i64
  %112 = getelementptr inbounds [100 x i32], [100 x i32]* %5, i64 0, i64 %111
  store i32 %109, i32* %112, align 4
  %113 = load i32, i32* %9, align 4
  %114 = load i32, i32* %2, align 4
  %115 = add nsw i32 %114, 1
  %116 = sext i32 %115 to i64
  %117 = getelementptr inbounds [100 x i32], [100 x i32]* %5, i64 0, i64 %116
  store i32 %113, i32* %117, align 4
  %118 = getelementptr inbounds [10 x i8], [10 x i8]* %13, i64 0, i64 0
  %119 = load i32, i32* %2, align 4
  %120 = sext i32 %119 to i64
  %121 = getelementptr inbounds [100 x [10 x i8]], [100 x [10 x i8]]* %11, i64 0, i64 %120
  %122 = getelementptr inbounds [10 x i8], [10 x i8]* %121, i64 0, i64 0
  %123 = call i8* @strcpy(i8* %118, i8* %122) #3
  %124 = load i32, i32* %2, align 4
  %125 = sext i32 %124 to i64
  %126 = getelementptr inbounds [100 x [10 x i8]], [100 x [10 x i8]]* %11, i64 0, i64 %125
  %127 = getelementptr inbounds [10 x i8], [10 x i8]* %126, i64 0, i64 0
  %128 = load i32, i32* %2, align 4
  %129 = add nsw i32 %128, 1
  %130 = sext i32 %129 to i64
  %131 = getelementptr inbounds [100 x [10 x i8]], [100 x [10 x i8]]* %11, i64 0, i64 %130
  %132 = getelementptr inbounds [10 x i8], [10 x i8]* %131, i64 0, i64 0
  %133 = call i8* @strcpy(i8* %127, i8* %132) #3
  %134 = load i32, i32* %2, align 4
  %135 = add nsw i32 %134, 1
  %136 = sext i32 %135 to i64
  %137 = getelementptr inbounds [100 x [10 x i8]], [100 x [10 x i8]]* %11, i64 0, i64 %136
  %138 = getelementptr inbounds [10 x i8], [10 x i8]* %137, i64 0, i64 0
  %139 = getelementptr inbounds [10 x i8], [10 x i8]* %13, i64 0, i64 0
  %140 = call i8* @strcpy(i8* %138, i8* %139) #3
  br label %141

141:                                              ; preds = %100, %89
  br label %142

142:                                              ; preds = %141
  %143 = load i32, i32* %2, align 4
  %144 = add nsw i32 %143, 1
  store i32 %144, i32* %2, align 4
  br label %82

145:                                              ; preds = %82
  br label %146

146:                                              ; preds = %145
  %147 = load i32, i32* %3, align 4
  %148 = add nsw i32 %147, 1
  store i32 %148, i32* %3, align 4
  br label %76

149:                                              ; preds = %76
  store i32 0, i32* %2, align 4
  br label %150

150:                                              ; preds = %160, %149
  %151 = load i32, i32* %2, align 4
  %152 = load i32, i32* %6, align 4
  %153 = icmp slt i32 %151, %152
  br i1 %153, label %154, label %163

154:                                              ; preds = %150
  %155 = load i32, i32* %2, align 4
  %156 = sext i32 %155 to i64
  %157 = getelementptr inbounds [100 x [10 x i8]], [100 x [10 x i8]]* %11, i64 0, i64 %156
  %158 = getelementptr inbounds [10 x i8], [10 x i8]* %157, i64 0, i64 0
  %159 = call i32 (i8*, ...) @printf(i8* getelementptr inbounds ([4 x i8], [4 x i8]* @.str.2, i64 0, i64 0), i8* %158)
  br label %160

160:                                              ; preds = %154
  %161 = load i32, i32* %2, align 4
  %162 = add nsw i32 %161, 1
  store i32 %162, i32* %2, align 4
  br label %150

163:                                              ; preds = %150
  store i32 0, i32* %2, align 4
  br label %164

164:                                              ; preds = %174, %163
  %165 = load i32, i32* %2, align 4
  %166 = load i32, i32* %8, align 4
  %167 = icmp slt i32 %165, %166
  br i1 %167, label %168, label %177

168:                                              ; preds = %164
  %169 = load i32, i32* %2, align 4
  %170 = sext i32 %169 to i64
  %171 = getelementptr inbounds [100 x [10 x i8]], [100 x [10 x i8]]* %12, i64 0, i64 %170
  %172 = getelementptr inbounds [10 x i8], [10 x i8]* %171, i64 0, i64 0
  %173 = call i32 (i8*, ...) @printf(i8* getelementptr inbounds ([4 x i8], [4 x i8]* @.str.2, i64 0, i64 0), i8* %172)
  br label %174

174:                                              ; preds = %168
  %175 = load i32, i32* %2, align 4
  %176 = add nsw i32 %175, 1
  store i32 %176, i32* %2, align 4
  br label %164

177:                                              ; preds = %164
  ret void
}

declare dso_local i32 @__isoc99_scanf(i8*, ...) #1

; Function Attrs: nounwind
declare dso_local i8* @strcpy(i8*, i8*) #2

declare dso_local i32 @printf(i8*, ...) #1


!llvm.module.flags = !{!0}
!llvm.ident = !{!1}

!0 = !{i32 1, !"wchar_size", i32 4}
!1 = !{!"clang version 10.0.0-4ubuntu1 "}
